target datalayout = "e-m:e-p270:32:32-p271:32:32-p272:64:64-i64:64-i128:128-f80:128-n8:16:32:64-S128"
target triple = "x86_64-pc-linux-gnu"

%struct.AVChannelLayout = type { i32, i32, %union.anon.1, ptr }
%union.anon.1 = type { i64 }
%struct.AVRational = type { i32, i32 }
%struct.AVFrame = type { [8 x ptr], [8 x i32], ptr, i32, i32, i32, i32, i32, %struct.AVRational, i64, i64, %struct.AVRational, i32, ptr, i32, i32, [8 x ptr], ptr, i32, ptr, i32, i32, i32, i32, i32, i32, i32, i64, ptr, i32, ptr, ptr, i64, i64, i64, i64, ptr, %struct.AVChannelLayout, i64 }

; Function Attrs: nounwind uwtable
define internal void @pick_pixel3(ptr noundef %0, i32 noundef %1, i32 noundef %2, ptr noundef %3, ptr noundef %4, ptr noundef %5, ptr noundef %6) #1 {
  %8 = alloca ptr, align 8
  %9 = alloca i32, align 4
  %10 = alloca i32, align 4
  %11 = alloca ptr, align 8
  %12 = alloca ptr, align 8
  %13 = alloca ptr, align 8
  %14 = alloca ptr, align 8
  store ptr %0, ptr %8, align 8, !tbaa !26
  store i32 %1, ptr %9, align 4, !tbaa !36
  store i32 %2, ptr %10, align 4, !tbaa !36
  store ptr %3, ptr %11, align 8, !tbaa !72
  store ptr %4, ptr %12, align 8, !tbaa !72
  store ptr %5, ptr %13, align 8, !tbaa !72
  store ptr %6, ptr %14, align 8, !tbaa !72
  %15 = load ptr, ptr %11, align 8, !tbaa !72
  %16 = load i32, ptr %15, align 4, !tbaa !36
  %17 = icmp slt i32 %16, 0
  br i1 %17, label %18, label %36

18:                                               ; preds = %7
  %19 = load ptr, ptr %8, align 8, !tbaa !26
  %20 = getelementptr inbounds nuw %struct.AVFrame, ptr %19, i32 0, i32 0
  %21 = getelementptr inbounds [8 x ptr], ptr %20, i64 0, i64 0
  %22 = load ptr, ptr %21, align 8, !tbaa !70
  %23 = load i32, ptr %10, align 4, !tbaa !36
  %24 = load ptr, ptr %8, align 8, !tbaa !26
  %25 = getelementptr inbounds nuw %struct.AVFrame, ptr %24, i32 0, i32 1
  %26 = getelementptr inbounds [8 x i32], ptr %25, i64 0, i64 0
  %27 = load i32, ptr %26, align 8, !tbaa !36
  %28 = mul nsw i32 %23, %27
  %29 = load i32, ptr %9, align 4, !tbaa !36
  %30 = add nsw i32 %28, %29
  %31 = sext i32 %30 to i64
  %32 = getelementptr inbounds i8, ptr %22, i64 %31
  %33 = load i8, ptr %32, align 1, !tbaa !71
  %34 = zext i8 %33 to i32
  %35 = load ptr, ptr %11, align 8, !tbaa !72
  store i32 %34, ptr %35, align 4, !tbaa !36
  br label %36

36:                                               ; preds = %18, %7
  %37 = load ptr, ptr %12, align 8, !tbaa !72
  %38 = load i32, ptr %37, align 4, !tbaa !36
  %39 = icmp slt i32 %38, 0
  br i1 %39, label %40, label %58

40:                                               ; preds = %36
  %41 = load ptr, ptr %8, align 8, !tbaa !26
  %42 = getelementptr inbounds nuw %struct.AVFrame, ptr %41, i32 0, i32 0
  %43 = getelementptr inbounds [8 x ptr], ptr %42, i64 0, i64 1
  %44 = load ptr, ptr %43, align 8, !tbaa !70
  %45 = load i32, ptr %10, align 4, !tbaa !36
  %46 = load ptr, ptr %8, align 8, !tbaa !26
  %47 = getelementptr inbounds nuw %struct.AVFrame, ptr %46, i32 0, i32 1
  %48 = getelementptr inbounds [8 x i32], ptr %47, i64 0, i64 1
  %49 = load i32, ptr %48, align 4, !tbaa !36
  %50 = mul nsw i32 %45, %49
  %51 = load i32, ptr %9, align 4, !tbaa !36
  %52 = add nsw i32 %50, %51
  %53 = sext i32 %52 to i64
  %54 = getelementptr inbounds i8, ptr %44, i64 %53
  %55 = load i8, ptr %54, align 1, !tbaa !71
  %56 = zext i8 %55 to i32
  %57 = load ptr, ptr %12, align 8, !tbaa !72
  store i32 %56, ptr %57, align 4, !tbaa !36
  br label %58

58:                                               ; preds = %40, %36
  %59 = load ptr, ptr %13, align 8, !tbaa !72
  %60 = load i32, ptr %59, align 4, !tbaa !36
  %61 = icmp slt i32 %60, 0
  br i1 %61, label %62, label %80

62:                                               ; preds = %58
  %63 = load ptr, ptr %8, align 8, !tbaa !26
  %64 = getelementptr inbounds nuw %struct.AVFrame, ptr %63, i32 0, i32 0
  %65 = getelementptr inbounds [8 x ptr], ptr %64, i64 0, i64 2
  %66 = load ptr, ptr %65, align 8, !tbaa !70
  %67 = load i32, ptr %10, align 4, !tbaa !36
  %68 = load ptr, ptr %8, align 8, !tbaa !26
  %69 = getelementptr inbounds nuw %struct.AVFrame, ptr %68, i32 0, i32 1
  %70 = getelementptr inbounds [8 x i32], ptr %69, i64 0, i64 2
  %71 = load i32, ptr %70, align 8, !tbaa !36
  %72 = mul nsw i32 %67, %71
  %73 = load i32, ptr %9, align 4, !tbaa !36
  %74 = add nsw i32 %72, %73
  %75 = sext i32 %74 to i64
  %76 = getelementptr inbounds i8, ptr %66, i64 %75
  %77 = load i8, ptr %76, align 1, !tbaa !71
  %78 = zext i8 %77 to i32
  %79 = load ptr, ptr %13, align 8, !tbaa !72
  store i32 %78, ptr %79, align 4, !tbaa !36
  br label %80

80:                                               ; preds = %62, %58
  ret void
}